; Function Attrs: nounwind uwtable
define range(i32 -1, 1) i32 @H5AC_get_mdc_image_info(ptr noundef %0, ptr noundef %1, ptr noundef %2) local_unnamed_addr #4 {
  %4 = load i8, ptr @H5AC_init_g, align 1, !tbaa !3, !range !7, !noundef !8
  %5 = trunc nuw i8 %4 to i1
  %6 = load i8, ptr @H5_libterm_g, align 1, !range !7
  %7 = trunc nuw i8 %6 to i1
  %8 = select i1 %5, i1 true, i1 %7
  br i1 %8, label %9, label %.thread, !prof !9

.thread:                                          ; preds = %3
  store i8 1, ptr @H5AC_init_g, align 1, !tbaa !3
  br label %12

9:                                                ; preds = %3
  %10 = xor i1 %7, true
  %11 = select i1 %5, i1 true, i1 %10
  br i1 %11, label %12, label %19, !prof !41

12:                                               ; preds = %.thread, %9
  %13 = tail call i32 @H5C_get_mdc_image_info(ptr noundef %0, ptr noundef %1, ptr noundef %2) #8
  %14 = icmp slt i32 %13, 0
  br i1 %14, label %15, label %19

15:                                               ; preds = %12
  %16 = load i64, ptr @H5E_CACHE_g, align 8, !tbaa !42
  %17 = load i64, ptr @H5E_CANTGET_g, align 8, !tbaa !42
  %18 = tail call i32 (ptr, ptr, i32, i64, i64, ptr, ...) @H5E_printf_stack(ptr noundef nonnull @.str, ptr noundef nonnull @__func__.H5AC_get_mdc_image_info, i32 noundef 2583, i64 noundef %16, i64 noundef %17, ptr noundef nonnull @.str.69) #8
  br label %19

19:                                               ; preds = %15, %12, %9
  %.0 = phi i32 [ -1, %15 ], [ 0, %12 ], [ 0, %9 ]
  ret i32 %.0
}